; Function Attrs: mustprogress uwtable
define void @_ZN7rocksdb24PessimisticTransactionDB26RemoveExpirableTransactionEm(ptr noundef nonnull align 8 dereferenceable(520) %0, i64 noundef %1) local_unnamed_addr #4 align 2 personality ptr @__gxx_personality_v0 {
  %3 = alloca i64, align 8
  store i64 %1, ptr %3, align 8, !tbaa !195
  %4 = getelementptr inbounds nuw i8, ptr %0, i64 328
  %5 = tail call noundef i32 @pthread_mutex_lock(ptr noundef nonnull align 8 dereferenceable(40) %4) #28
  %.not.i.i = icmp eq i32 %5, 0
  br i1 %.not.i.i, label %_ZNSt10lock_guardISt5mutexEC2ERS0_.exit, label %6

6:                                                ; preds = %2
  tail call void @_ZSt20__throw_system_errori(i32 noundef %5) #30
  unreachable

_ZNSt10lock_guardISt5mutexEC2ERS0_.exit:          ; preds = %2
  %7 = getelementptr inbounds nuw i8, ptr %0, i64 368
  %8 = invoke noundef i64 @_ZNSt10_HashtableImSt4pairIKmPN7rocksdb22PessimisticTransactionEESaIS5_ENSt8__detail10_Select1stESt8equal_toImESt4hashImENS7_18_Mod_range_hashingENS7_20_Default_ranged_hashENS7_20_Prime_rehash_policyENS7_17_Hashtable_traitsILb0ELb0ELb1EEEE8_M_eraseESt17integral_constantIbLb1EERS1_(ptr noundef nonnull align 8 dereferenceable(56) %7, ptr noundef nonnull align 8 dereferenceable(8) %3)
          to label %_ZNSt13unordered_mapImPN7rocksdb22PessimisticTransactionESt4hashImESt8equal_toImESaISt4pairIKmS2_EEE5eraseERS8_.exit unwind label %10

_ZNSt13unordered_mapImPN7rocksdb22PessimisticTransactionESt4hashImESt8equal_toImESaISt4pairIKmS2_EEE5eraseERS8_.exit: ; preds = %_ZNSt10lock_guardISt5mutexEC2ERS0_.exit
  %9 = call noundef i32 @pthread_mutex_unlock(ptr noundef nonnull align 8 dereferenceable(40) %4) #28
  ret void

10:                                               ; preds = %_ZNSt10lock_guardISt5mutexEC2ERS0_.exit
  %11 = landingpad { ptr, i32 }
          cleanup
  %12 = call noundef i32 @pthread_mutex_unlock(ptr noundef nonnull align 8 dereferenceable(40) %4) #28
  resume { ptr, i32 } %11
}